target datalayout = "e-m:e-p270:32:32-p271:32:32-p272:64:64-i64:64-i128:128-f80:128-n8:16:32:64-S128"
target triple = "x86_64-pc-linux-gnu"

%struct.SDL_GUID = type { [16 x i8] }
%struct.SDL_Gamepad = type { ptr, i32, ptr, i32, i32, ptr, i32, ptr, ptr, ptr, i64, ptr }
%struct.SDL_Joystick = type { i32, ptr, ptr, ptr, %struct.SDL_GUID, i16, i64, i8, i8, i32, ptr, i32, ptr, i32, ptr, i32, ptr, i32, ptr, i32, i32, ptr, i16, i16, i64, i64, i16, i16, i64, i64, i8, i8, i8, i64, i8, i32, i32, i32, i8, i32, ptr, i32, ptr, [3 x [3 x float]], i64, ptr, ptr, i32, i32, ptr }
%struct.SDL_SteamVirtualGamepadInfo = type { i64, ptr, i16, i16, i32 }

@.str.4 = private unnamed_addr constant [26 x i8] c"Parameter '%s' is invalid\00", align 1
@.str.5 = private unnamed_addr constant [8 x i8] c"gamepad\00", align 1

; Function Attrs: nounwind uwtable
define hidden i32 @SDL_GetGamepadType_REAL(ptr noundef %0) #0 {
  %2 = alloca i32, align 4
  %3 = alloca ptr, align 8
  %4 = alloca i32, align 4
  %5 = alloca ptr, align 8
  %6 = alloca i32, align 4
  store ptr %0, ptr %3, align 8
  call void @llvm.lifetime.start.p0(i64 4, ptr %4) #8
  call void @llvm.lifetime.start.p0(i64 8, ptr %5) #8
  call void @SDL_LockJoysticks_REAL()
  %7 = load ptr, ptr %3, align 8
  %8 = call zeroext i1 @SDL_ObjectValid(ptr noundef %7, i32 noundef 5)
  br i1 %8, label %9, label %14

9:                                                ; preds = %1
  %10 = load ptr, ptr %3, align 8
  %11 = getelementptr inbounds nuw %struct.SDL_Gamepad, ptr %10, i32 0, i32 0
  %12 = load ptr, ptr %11, align 8
  %13 = call zeroext i1 @SDL_IsJoystickValid(ptr noundef %12)
  br i1 %13, label %16, label %14

14:                                               ; preds = %9, %1
  %15 = call zeroext i1 (ptr, ...) @SDL_SetError_REAL(ptr noundef @.str.4, ptr noundef @.str.5)
  call void @SDL_UnlockJoysticks_REAL()
  store i32 0, ptr %2, align 4
  store i32 1, ptr %6, align 4
  br label %35

16:                                               ; preds = %9
  %17 = load ptr, ptr %3, align 8
  %18 = getelementptr inbounds nuw %struct.SDL_Gamepad, ptr %17, i32 0, i32 0
  %19 = load ptr, ptr %18, align 8
  %20 = getelementptr inbounds nuw %struct.SDL_Joystick, ptr %19, i32 0, i32 0
  %21 = load i32, ptr %20, align 8
  %22 = call ptr @SDL_GetJoystickVirtualGamepadInfoForID(i32 noundef %21)
  store ptr %22, ptr %5, align 8
  %23 = load ptr, ptr %5, align 8
  %24 = icmp ne ptr %23, null
  br i1 %24, label %25, label %29

25:                                               ; preds = %16
  %26 = load ptr, ptr %5, align 8
  %27 = getelementptr inbounds nuw %struct.SDL_SteamVirtualGamepadInfo, ptr %26, i32 0, i32 4
  %28 = load i32, ptr %27, align 4
  store i32 %28, ptr %4, align 4
  br label %33

29:                                               ; preds = %16
  %30 = load ptr, ptr %3, align 8
  %31 = getelementptr inbounds nuw %struct.SDL_Gamepad, ptr %30, i32 0, i32 3
  %32 = load i32, ptr %31, align 8
  store i32 %32, ptr %4, align 4
  br label %33

33:                                               ; preds = %29, %25
  call void @SDL_UnlockJoysticks_REAL()
  %34 = load i32, ptr %4, align 4
  store i32 %34, ptr %2, align 4
  store i32 1, ptr %6, align 4
  br label %35

35:                                               ; preds = %33, %14
  call void @llvm.lifetime.end.p0(i64 8, ptr %5) #8
  call void @llvm.lifetime.end.p0(i64 4, ptr %4) #8
  %36 = load i32, ptr %2, align 4
  ret i32 %36
}