; Function Attrs: nounwind uwtable
define hidden i32 @SDL_GetGamepadType_REAL(ptr noundef %0) local_unnamed_addr #0 {
  tail call void @SDL_LockJoysticks_REAL() #10
  %2 = tail call zeroext i1 @SDL_ObjectValid(ptr noundef %0, i32 noundef 5) #10
  br i1 %2, label %3, label %6

3:                                                ; preds = %1
  %4 = load ptr, ptr %0, align 8
  %5 = tail call zeroext i1 @SDL_IsJoystickValid(ptr noundef %4) #10
  br i1 %5, label %8, label %6

6:                                                ; preds = %3, %1
  %7 = tail call zeroext i1 (ptr, ...) @SDL_SetError_REAL(ptr noundef nonnull @.str.4, ptr noundef nonnull @.str.5) #10
  br label %14

8:                                                ; preds = %3
  %9 = load ptr, ptr %0, align 8
  %10 = load i32, ptr %9, align 8
  %11 = tail call ptr @SDL_GetJoystickVirtualGamepadInfoForID(i32 noundef %10) #10
  %.not = icmp eq ptr %11, null
  %12 = getelementptr inbounds nuw i8, ptr %11, i64 20
  %13 = getelementptr inbounds nuw i8, ptr %0, i64 24
  %.07.in = select i1 %.not, ptr %13, ptr %12
  %.07 = load i32, ptr %.07.in, align 4
  br label %14

14:                                               ; preds = %8, %6
  %.0 = phi i32 [ %.07, %8 ], [ 0, %6 ]
  tail call void @SDL_UnlockJoysticks_REAL() #10
  ret i32 %.0
}